target datalayout = "e-m:e-p270:32:32-p271:32:32-p272:64:64-i64:64-i128:128-f80:128-n8:16:32:64-S128"
target triple = "x86_64-pc-linux-gnu"

%union.pthread_mutex_t = type { %struct.__pthread_mutex_s }
%struct.__pthread_mutex_s = type { i32, i32, i32, i32, i32, i16, i16, %struct.__pthread_internal_list }
%struct.__pthread_internal_list = type { ptr, ptr }

@.str.43 = private unnamed_addr constant [29 x i8] c"%s: pthread_mutex_lock(): %m\00", align 1
@.str.44 = private unnamed_addr constant [31 x i8] c"%s: pthread_mutex_unlock(): %m\00", align 1
@sched_cnt_mutex = internal global %union.pthread_mutex_t zeroinitializer, align 8
@__func__.queue_job_scheduler = private unnamed_addr constant [20 x i8] c"queue_job_scheduler\00", align 1
@job_sched_cnt = internal global i32 0, align 4

; Function Attrs: nounwind uwtable
define dso_local void @queue_job_scheduler() #0 {
  %1 = alloca i32, align 4
  %2 = alloca i32, align 4
  br label %3

3:                                                ; preds = %0
  call void @llvm.lifetime.start.p0(i64 4, ptr %1) #11
  %4 = call i32 @pthread_mutex_lock(ptr noundef @sched_cnt_mutex) #11
  store i32 %4, ptr %1, align 4
  %5 = load i32, ptr %1, align 4
  %6 = icmp ne i32 %5, 0
  br i1 %6, label %7, label %10

7:                                                ; preds = %3
  %8 = load i32, ptr %1, align 4
  %9 = call ptr @__errno_location() #14
  store i32 %8, ptr %9, align 4
  call void (ptr, ...) @fatal_abort(ptr noundef @.str.43, ptr noundef @__func__.queue_job_scheduler) #12
  unreachable

10:                                               ; preds = %3
  call void @llvm.lifetime.end.p0(i64 4, ptr %1) #11
  br label %11

11:                                               ; preds = %10
  %12 = load i32, ptr @job_sched_cnt, align 4
  %13 = add nsw i32 %12, 1
  store i32 %13, ptr @job_sched_cnt, align 4
  br label %14

14:                                               ; preds = %11
  call void @llvm.lifetime.start.p0(i64 4, ptr %2) #11
  %15 = call i32 @pthread_mutex_unlock(ptr noundef @sched_cnt_mutex) #11
  store i32 %15, ptr %2, align 4
  %16 = load i32, ptr %2, align 4
  %17 = icmp ne i32 %16, 0
  br i1 %17, label %18, label %21

18:                                               ; preds = %14
  %19 = load i32, ptr %2, align 4
  %20 = call ptr @__errno_location() #14
  store i32 %19, ptr %20, align 4
  call void (ptr, ...) @fatal_abort(ptr noundef @.str.44, ptr noundef @__func__.queue_job_scheduler) #12
  unreachable

21:                                               ; preds = %14
  call void @llvm.lifetime.end.p0(i64 4, ptr %2) #11
  br label %22

22:                                               ; preds = %21
  ret void
}