; Function Attrs: nounwind uwtable
define dso_local void @queue_job_scheduler() local_unnamed_addr #6 {
  %1 = tail call i32 @pthread_mutex_lock(ptr noundef nonnull @sched_cnt_mutex) #19
  %.not = icmp eq i32 %1, 0
  br i1 %.not, label %4, label %2

2:                                                ; preds = %0
  %3 = tail call ptr @__errno_location() #21
  store i32 %1, ptr %3, align 4
  tail call void (ptr, ...) @fatal_abort(ptr noundef nonnull @.str.43, ptr noundef nonnull @__func__.queue_job_scheduler) #20
  unreachable

4:                                                ; preds = %0
  %5 = load i32, ptr @job_sched_cnt, align 4
  %6 = add nsw i32 %5, 1
  store i32 %6, ptr @job_sched_cnt, align 4
  %7 = tail call i32 @pthread_mutex_unlock(ptr noundef nonnull @sched_cnt_mutex) #19
  %.not5 = icmp eq i32 %7, 0
  br i1 %.not5, label %10, label %8

8:                                                ; preds = %4
  %9 = tail call ptr @__errno_location() #21
  store i32 %7, ptr %9, align 4
  tail call void (ptr, ...) @fatal_abort(ptr noundef nonnull @.str.44, ptr noundef nonnull @__func__.queue_job_scheduler) #20
  unreachable

10:                                               ; preds = %4
  ret void
}